target datalayout = "e-m:e-p270:32:32-p271:32:32-p272:64:64-i64:64-i128:128-f80:128-n8:16:32:64-S128"
target triple = "x86_64-pc-linux-gnu"

%struct.Abc_Cex_t_ = type { i32, i32, i32, i32, i32, [0 x i32] }
%struct.Aig_Man_t_ = type { ptr, ptr, ptr, ptr, ptr, ptr, ptr, %struct.Aig_Obj_t_, i32, i32, i32, i32, i32, i32, [7 x i32], i32, ptr, i32, ptr, i32, ptr, i32, i32, i32, ptr, i32, i32, i32, i32, i32, ptr, ptr, i32, ptr, ptr, i32, ptr, ptr, i32, i32, i32, ptr, ptr, ptr, ptr, ptr, ptr, ptr, ptr, ptr, ptr, ptr, ptr, ptr, ptr, i32, ptr, ptr, ptr, ptr, i32, i64, i64, i64, ptr, ptr }
%struct.Aig_Obj_t_ = type { %union.anon, ptr, ptr, i64, i32, i32, %union.anon.0 }
%union.anon = type { ptr }
%union.anon.0 = type { ptr }
%struct.Vec_Ptr_t_ = type { i32, i32, ptr }

@.str = private unnamed_addr constant [61 x i8] c"Saig_ManCexRemap(): The initial counter-example is invalid.\0A\00", align 1
@.str.1 = private unnamed_addr constant [49 x i8] c"Saig_ManCexRemap(): Counter-example is invalid.\0A\00", align 1
@.str.2 = private unnamed_addr constant [45 x i8] c"Counter-example verification is successful.\0A\00", align 1
@.str.3 = private unnamed_addr constant [52 x i8] c"Output %d of miter \22%s\22 was asserted in frame %d. \0A\00", align 1

; Function Attrs: nounwind uwtable
define internal void @Abc_InfoSetBit(ptr noundef %0, i32 noundef %1) #0 {
  %3 = alloca ptr, align 8
  %4 = alloca i32, align 4
  store ptr %0, ptr %3, align 8
  store i32 %1, ptr %4, align 4
  %5 = load i32, ptr %4, align 4
  %6 = and i32 %5, 31
  %7 = shl i32 1, %6
  %8 = load ptr, ptr %3, align 8
  %9 = load i32, ptr %4, align 4
  %10 = ashr i32 %9, 5
  %11 = sext i32 %10 to i64
  %12 = getelementptr inbounds i32, ptr %8, i64 %11
  %13 = load i32, ptr %12, align 4
  %14 = or i32 %13, %7
  store i32 %14, ptr %12, align 4
  ret void
}

; Function Attrs: nounwind uwtable
define internal i32 @Abc_InfoHasBit(ptr noundef %0, i32 noundef %1) #0 {
  %3 = alloca ptr, align 8
  %4 = alloca i32, align 4
  store ptr %0, ptr %3, align 8
  store i32 %1, ptr %4, align 4
  %5 = load ptr, ptr %3, align 8
  %6 = load i32, ptr %4, align 4
  %7 = ashr i32 %6, 5
  %8 = sext i32 %7 to i64
  %9 = getelementptr inbounds i32, ptr %5, i64 %8
  %10 = load i32, ptr %9, align 4
  %11 = load i32, ptr %4, align 4
  %12 = and i32 %11, 31
  %13 = shl i32 1, %12
  %14 = and i32 %10, %13
  %15 = icmp ugt i32 %14, 0
  %16 = zext i1 %15 to i32
  ret i32 %16
}

; Function Attrs: nounwind uwtable
define internal ptr @Vec_PtrEntry(ptr noundef %0, i32 noundef %1) #0 {
  %3 = alloca ptr, align 8
  %4 = alloca i32, align 4
  store ptr %0, ptr %3, align 8
  store i32 %1, ptr %4, align 4
  %5 = load ptr, ptr %3, align 8
  %6 = getelementptr inbounds %struct.Vec_Ptr_t_, ptr %5, i32 0, i32 2
  %7 = load ptr, ptr %6, align 8
  %8 = load i32, ptr %4, align 4
  %9 = sext i32 %8 to i64
  %10 = getelementptr inbounds ptr, ptr %7, i64 %9
  %11 = load ptr, ptr %10, align 8
  ret ptr %11
}

; Function Attrs: nounwind uwtable
define internal i32 @Saig_ManPiNum(ptr noundef %0) #0 {
  %2 = alloca ptr, align 8
  store ptr %0, ptr %2, align 8
  %3 = load ptr, ptr %2, align 8
  %4 = getelementptr inbounds %struct.Aig_Man_t_, ptr %3, i32 0, i32 9
  %5 = load i32, ptr %4, align 4
  ret i32 %5
}

; Function Attrs: nounwind uwtable
define internal i32 @Aig_ManRegNum(ptr noundef %0) #0 {
  %2 = alloca ptr, align 8
  store ptr %0, ptr %2, align 8
  %3 = load ptr, ptr %2, align 8
  %4 = getelementptr inbounds %struct.Aig_Man_t_, ptr %3, i32 0, i32 8
  %5 = load i32, ptr %4, align 8
  ret i32 %5
}

; Function Attrs: nounwind uwtable
define ptr @Saig_ManCexRemap(ptr noundef %0, ptr noundef %1, ptr noundef %2) #0 {
  %4 = alloca ptr, align 8
  %5 = alloca ptr, align 8
  %6 = alloca ptr, align 8
  %7 = alloca ptr, align 8
  %8 = alloca ptr, align 8
  %9 = alloca i32, align 4
  %10 = alloca i32, align 4
  store ptr %0, ptr %4, align 8
  store ptr %1, ptr %5, align 8
  store ptr %2, ptr %6, align 8
  %11 = load ptr, ptr %5, align 8
  %12 = load ptr, ptr %6, align 8
  %13 = call i32 @Saig_ManVerifyCex(ptr noundef %11, ptr noundef %12)
  %14 = icmp ne i32 %13, 0
  br i1 %14, label %17, label %15

15:                                               ; preds = %3
  %16 = call i32 (ptr, ...) @printf(ptr noundef @.str)
  br label %17

17:                                               ; preds = %15, %3
  %18 = load ptr, ptr %4, align 8
  %19 = call i32 @Aig_ManRegNum(ptr noundef %18)
  %20 = load ptr, ptr %4, align 8
  %21 = call i32 @Saig_ManPiNum(ptr noundef %20)
  %22 = load ptr, ptr %6, align 8
  %23 = getelementptr inbounds %struct.Abc_Cex_t_, ptr %22, i32 0, i32 1
  %24 = load i32, ptr %23, align 4
  %25 = add nsw i32 %24, 1
  %26 = call ptr @Abc_CexAlloc(i32 noundef %19, i32 noundef %21, i32 noundef %25)
  store ptr %26, ptr %7, align 8
  %27 = load ptr, ptr %6, align 8
  %28 = getelementptr inbounds %struct.Abc_Cex_t_, ptr %27, i32 0, i32 1
  %29 = load i32, ptr %28, align 4
  %30 = load ptr, ptr %7, align 8
  %31 = getelementptr inbounds %struct.Abc_Cex_t_, ptr %30, i32 0, i32 1
  store i32 %29, ptr %31, align 4
  %32 = load ptr, ptr %6, align 8
  %33 = getelementptr inbounds %struct.Abc_Cex_t_, ptr %32, i32 0, i32 0
  %34 = load i32, ptr %33, align 4
  %35 = load ptr, ptr %7, align 8
  %36 = getelementptr inbounds %struct.Abc_Cex_t_, ptr %35, i32 0, i32 0
  store i32 %34, ptr %36, align 4
  store i32 0, ptr %10, align 4
  br label %37

37:                                               ; preds = %100, %17
  %38 = load i32, ptr %10, align 4
  %39 = load ptr, ptr %6, align 8
  %40 = getelementptr inbounds %struct.Abc_Cex_t_, ptr %39, i32 0, i32 1
  %41 = load i32, ptr %40, align 4
  %42 = icmp sle i32 %38, %41
  br i1 %42, label %43, label %103

43:                                               ; preds = %37
  store i32 0, ptr %9, align 4
  br label %44

44:                                               ; preds = %96, %43
  %45 = load i32, ptr %9, align 4
  %46 = load ptr, ptr %5, align 8
  %47 = call i32 @Saig_ManPiNum(ptr noundef %46)
  %48 = icmp slt i32 %45, %47
  br i1 %48, label %49, label %55

49:                                               ; preds = %44
  %50 = load ptr, ptr %5, align 8
  %51 = getelementptr inbounds %struct.Aig_Man_t_, ptr %50, i32 0, i32 2
  %52 = load ptr, ptr %51, align 8
  %53 = load i32, ptr %9, align 4
  %54 = call ptr @Vec_PtrEntry(ptr noundef %52, i32 noundef %53)
  store ptr %54, ptr %8, align 8
  br label %55

55:                                               ; preds = %49, %44
  %56 = phi i1 [ false, %44 ], [ true, %49 ]
  br i1 %56, label %57, label %99

57:                                               ; preds = %55
  %58 = load i32, ptr %9, align 4
  %59 = load ptr, ptr %4, align 8
  %60 = call i32 @Saig_ManPiNum(ptr noundef %59)
  %61 = icmp eq i32 %58, %60
  br i1 %61, label %62, label %63

62:                                               ; preds = %57
  br label %99

63:                                               ; preds = %57
  %64 = load ptr, ptr %6, align 8
  %65 = getelementptr inbounds %struct.Abc_Cex_t_, ptr %64, i32 0, i32 5
  %66 = getelementptr inbounds [0 x i32], ptr %65, i64 0, i64 0
  %67 = load ptr, ptr %6, align 8
  %68 = getelementptr inbounds %struct.Abc_Cex_t_, ptr %67, i32 0, i32 2
  %69 = load i32, ptr %68, align 4
  %70 = load ptr, ptr %6, align 8
  %71 = getelementptr inbounds %struct.Abc_Cex_t_, ptr %70, i32 0, i32 3
  %72 = load i32, ptr %71, align 4
  %73 = load i32, ptr %10, align 4
  %74 = mul nsw i32 %72, %73
  %75 = add nsw i32 %69, %74
  %76 = load i32, ptr %9, align 4
  %77 = add nsw i32 %75, %76
  %78 = call i32 @Abc_InfoHasBit(ptr noundef %66, i32 noundef %77)
  %79 = icmp ne i32 %78, 0
  br i1 %79, label %80, label %95

80:                                               ; preds = %63
  %81 = load ptr, ptr %7, align 8
  %82 = getelementptr inbounds %struct.Abc_Cex_t_, ptr %81, i32 0, i32 5
  %83 = getelementptr inbounds [0 x i32], ptr %82, i64 0, i64 0
  %84 = load ptr, ptr %7, align 8
  %85 = getelementptr inbounds %struct.Abc_Cex_t_, ptr %84, i32 0, i32 2
  %86 = load i32, ptr %85, align 4
  %87 = load ptr, ptr %7, align 8
  %88 = getelementptr inbounds %struct.Abc_Cex_t_, ptr %87, i32 0, i32 3
  %89 = load i32, ptr %88, align 4
  %90 = load i32, ptr %10, align 4
  %91 = mul nsw i32 %89, %90
  %92 = add nsw i32 %86, %91
  %93 = load i32, ptr %9, align 4
  %94 = add nsw i32 %92, %93
  call void @Abc_InfoSetBit(ptr noundef %83, i32 noundef %94)
  br label %95

95:                                               ; preds = %80, %63
  br label %96

96:                                               ; preds = %95
  %97 = load i32, ptr %9, align 4
  %98 = add nsw i32 %97, 1
  store i32 %98, ptr %9, align 4
  br label %44, !llvm.loop !4

99:                                               ; preds = %62, %55
  br label %100

100:                                              ; preds = %99
  %101 = load i32, ptr %10, align 4
  %102 = add nsw i32 %101, 1
  store i32 %102, ptr %10, align 4
  br label %37, !llvm.loop !6

103:                                              ; preds = %37
  %104 = load ptr, ptr %4, align 8
  %105 = load ptr, ptr %7, align 8
  %106 = call i32 @Saig_ManVerifyCex(ptr noundef %104, ptr noundef %105)
  %107 = icmp ne i32 %106, 0
  br i1 %107, label %111, label %108

108:                                              ; preds = %103
  %109 = call i32 (ptr, ...) @printf(ptr noundef @.str.1)
  %110 = load ptr, ptr %7, align 8
  call void @Abc_CexFree(ptr noundef %110)
  store ptr null, ptr %7, align 8
  br label %121

111:                                              ; preds = %103
  call void (i32, ptr, ...) @Abc_Print(i32 noundef 1, ptr noundef @.str.2)
  %112 = load ptr, ptr %7, align 8
  %113 = getelementptr inbounds %struct.Abc_Cex_t_, ptr %112, i32 0, i32 0
  %114 = load i32, ptr %113, align 4
  %115 = load ptr, ptr %4, align 8
  %116 = getelementptr inbounds %struct.Aig_Man_t_, ptr %115, i32 0, i32 0
  %117 = load ptr, ptr %116, align 8
  %118 = load ptr, ptr %7, align 8
  %119 = getelementptr inbounds %struct.Abc_Cex_t_, ptr %118, i32 0, i32 1
  %120 = load i32, ptr %119, align 4
  call void (i32, ptr, ...) @Abc_Print(i32 noundef 1, ptr noundef @.str.3, i32 noundef %114, ptr noundef %117, i32 noundef %120)
  br label %121

121:                                              ; preds = %111, %108
  %122 = load ptr, ptr %7, align 8
  ret ptr %122
}