; Function Attrs: nounwind uwtable
define noundef ptr @Saig_ManCexRemap(ptr noundef %0, ptr noundef %1, ptr noundef %2) local_unnamed_addr #2 {
  %4 = tail call i32 @Saig_ManVerifyCex(ptr noundef %1, ptr noundef %2) #18
  %.not = icmp eq i32 %4, 0
  br i1 %.not, label %5, label %6

5:                                                ; preds = %3
  %puts = tail call i32 @puts(ptr nonnull dereferenceable(1) @str)
  br label %6

6:                                                ; preds = %5, %3
  %7 = getelementptr i8, ptr %0, i64 104
  %.val = load i32, ptr %7, align 8
  %8 = getelementptr i8, ptr %0, i64 108
  %.val41 = load i32, ptr %8, align 4
  %9 = getelementptr inbounds nuw i8, ptr %2, i64 4
  %10 = load i32, ptr %9, align 4
  %11 = add nsw i32 %10, 1
  %12 = tail call ptr @Abc_CexAlloc(i32 noundef %.val, i32 noundef %.val41, i32 noundef %11) #18
  %13 = load i32, ptr %9, align 4
  %14 = getelementptr inbounds nuw i8, ptr %12, i64 4
  store i32 %13, ptr %14, align 4
  %15 = load i32, ptr %2, align 4
  store i32 %15, ptr %12, align 4
  %16 = load i32, ptr %9, align 4
  %.not3748 = icmp slt i32 %16, 0
  br i1 %.not3748, label %._crit_edge, label %.preheader.lr.ph

.preheader.lr.ph:                                 ; preds = %6
  %17 = getelementptr i8, ptr %1, i64 108
  %18 = getelementptr inbounds nuw i8, ptr %2, i64 20
  %19 = getelementptr inbounds nuw i8, ptr %2, i64 8
  %20 = getelementptr inbounds nuw i8, ptr %2, i64 12
  %21 = getelementptr inbounds nuw i8, ptr %12, i64 20
  %22 = getelementptr inbounds nuw i8, ptr %12, i64 8
  %23 = getelementptr inbounds nuw i8, ptr %12, i64 12
  %24 = load i32, ptr %17, align 4
  %25 = icmp sgt i32 %24, 0
  br i1 %25, label %.preheader, label %._crit_edge

.preheader:                                       ; preds = %.preheader.lr.ph, %.critedge
  %26 = phi i32 [ %58, %.critedge ], [ %16, %.preheader.lr.ph ]
  %.val4255 = phi i32 [ %.val4256, %.critedge ], [ %24, %.preheader.lr.ph ]
  %.val4245 = phi i32 [ %.val424551, %.critedge ], [ %24, %.preheader.lr.ph ]
  %.049 = phi i32 [ %59, %.critedge ], [ 0, %.preheader.lr.ph ]
  %27 = icmp sgt i32 %.val4245, 0
  br i1 %27, label %.lr.ph.preheader, label %.critedge

.lr.ph.preheader:                                 ; preds = %.preheader
  %.val4360 = load i32, ptr %8, align 4
  %28 = icmp eq i32 %.val4360, 0
  br i1 %28, label %.critedge.loopexit, label %.lr.ph63

.lr.ph:                                           ; preds = %55
  %.val43 = load i32, ptr %8, align 4
  %29 = icmp eq i32 %56, %.val43
  br i1 %29, label %.critedge.loopexit, label %.lr.ph63, !llvm.loop !4

.lr.ph63:                                         ; preds = %.lr.ph.preheader, %.lr.ph
  %.0354662 = phi i32 [ %56, %.lr.ph ], [ 0, %.lr.ph.preheader ]
  %.val425861 = phi i32 [ %.val42, %.lr.ph ], [ %.val4255, %.lr.ph.preheader ]
  %30 = load i32, ptr %19, align 4
  %31 = load i32, ptr %20, align 4
  %32 = mul nsw i32 %31, %.049
  %33 = add i32 %30, %.0354662
  %34 = add i32 %33, %32
  %35 = ashr i32 %34, 5
  %36 = sext i32 %35 to i64
  %37 = getelementptr inbounds i32, ptr %18, i64 %36
  %38 = load i32, ptr %37, align 4
  %39 = and i32 %34, 31
  %40 = shl nuw i32 1, %39
  %41 = and i32 %40, %38
  %.not40 = icmp eq i32 %41, 0
  br i1 %.not40, label %55, label %42

42:                                               ; preds = %.lr.ph63
  %43 = load i32, ptr %22, align 4
  %44 = load i32, ptr %23, align 4
  %45 = mul nsw i32 %44, %.049
  %46 = add i32 %43, %.0354662
  %47 = add i32 %46, %45
  %48 = and i32 %47, 31
  %49 = shl nuw i32 1, %48
  %50 = ashr i32 %47, 5
  %51 = sext i32 %50 to i64
  %52 = getelementptr inbounds i32, ptr %21, i64 %51
  %53 = load i32, ptr %52, align 4
  %54 = or i32 %49, %53
  store i32 %54, ptr %52, align 4
  %.val42.pre = load i32, ptr %17, align 4
  br label %55

55:                                               ; preds = %.lr.ph63, %42
  %.val42 = phi i32 [ %.val425861, %.lr.ph63 ], [ %.val42.pre, %42 ]
  %56 = add nuw nsw i32 %.0354662, 1
  %57 = icmp slt i32 %56, %.val42
  br i1 %57, label %.lr.ph, label %.critedge.loopexit, !llvm.loop !4

.critedge.loopexit:                               ; preds = %55, %.lr.ph, %.lr.ph.preheader
  %.val4257 = phi i32 [ %.val4255, %.lr.ph.preheader ], [ %.val42, %.lr.ph ], [ %.val42, %55 ]
  %.val424552 = phi i32 [ %.val4245, %.lr.ph.preheader ], [ %.val42, %.lr.ph ], [ %.val42, %55 ]
  %.pre = load i32, ptr %9, align 4
  br label %.critedge

.critedge:                                        ; preds = %.critedge.loopexit, %.preheader
  %58 = phi i32 [ %.pre, %.critedge.loopexit ], [ %26, %.preheader ]
  %.val4256 = phi i32 [ %.val4257, %.critedge.loopexit ], [ %.val4255, %.preheader ]
  %.val424551 = phi i32 [ %.val424552, %.critedge.loopexit ], [ %.val4245, %.preheader ]
  %59 = add nuw nsw i32 %.049, 1
  %.not37.not = icmp slt i32 %.049, %58
  br i1 %.not37.not, label %.preheader, label %._crit_edge, !llvm.loop !6

._crit_edge:                                      ; preds = %.critedge, %.preheader.lr.ph, %6
  %60 = tail call i32 @Saig_ManVerifyCex(ptr noundef %0, ptr noundef nonnull %12) #18
  %.not38 = icmp eq i32 %60, 0
  br i1 %.not38, label %61, label %62

61:                                               ; preds = %._crit_edge
  %puts39 = tail call i32 @puts(ptr nonnull dereferenceable(1) @str.1)
  tail call void @Abc_CexFree(ptr noundef nonnull %12) #18
  br label %66

62:                                               ; preds = %._crit_edge
  tail call void (i32, ptr, ...) @Abc_Print(i32 poison, ptr noundef nonnull @.str.2)
  %63 = load i32, ptr %12, align 4
  %64 = load ptr, ptr %0, align 8
  %65 = load i32, ptr %14, align 4
  tail call void (i32, ptr, ...) @Abc_Print(i32 poison, ptr noundef nonnull @.str.3, i32 noundef %63, ptr noundef %64, i32 noundef %65)
  br label %66

66:                                               ; preds = %62, %61
  %.036 = phi ptr [ %12, %62 ], [ null, %61 ]
  ret ptr %.036
}